target datalayout = "e-m:e-p270:32:32-p271:32:32-p272:64:64-i64:64-i128:128-f80:128-n8:16:32:64-S128"
target triple = "x86_64-pc-linux-gnu"

@hf_rpc_lastfrag = internal global i32 0, align 4
@hf_rpc_fraglen = internal global i32 0, align 4
@hf_rpc_fragment_data = internal global i32 0, align 4
@ett_rpc_fraghdr = internal global i32 0, align 4
@.str.331 = private unnamed_addr constant [25 x i8] c"Fragment header: %s%u %s\00", align 1
@.str.332 = private unnamed_addr constant [16 x i8] c"Last fragment, \00", align 1
@.str.333 = private unnamed_addr constant [1 x i8] zeroinitializer, align 1
@.str.334 = private unnamed_addr constant [5 x i8] c"byte\00", align 1
@.str.335 = private unnamed_addr constant [6 x i8] c"bytes\00", align 1
@.str.347 = private unnamed_addr constant [12 x i8] c"%s Fragment\00", align 1

; Function Attrs: null_pointer_is_valid sspstrong uwtable
define internal void @show_rpc_fragheader(ptr noundef %0, ptr noundef %1, i32 noundef %2) #0 {
  %4 = alloca ptr, align 8
  %5 = alloca ptr, align 8
  %6 = alloca i32, align 4
  %7 = alloca ptr, align 8
  %8 = alloca i32, align 4
  store ptr %0, ptr %4, align 8
  store ptr %1, ptr %5, align 8
  store i32 %2, ptr %6, align 4
  call void @llvm.lifetime.start.p0(i64 8, ptr %7) #18
  call void @llvm.lifetime.start.p0(i64 4, ptr %8) #18
  %9 = load ptr, ptr %5, align 8
  %10 = icmp ne ptr %9, null
  br i1 %10, label %11, label %37

11:                                               ; preds = %3
  %12 = load i32, ptr %6, align 4
  %13 = and i32 %12, 2147483647
  store i32 %13, ptr %8, align 4
  %14 = load ptr, ptr %5, align 8
  %15 = load ptr, ptr %4, align 8
  %16 = load i32, ptr @ett_rpc_fraghdr, align 4
  %17 = load i32, ptr %6, align 4
  %18 = and i32 %17, -2147483648
  %19 = icmp ne i32 %18, 0
  %20 = select i1 %19, ptr @.str.332, ptr @.str.333
  %21 = load i32, ptr %8, align 4
  %22 = load i32, ptr %8, align 4
  %23 = icmp eq i32 %22, 1
  %24 = select i1 %23, ptr @.str.334, ptr @.str.335
  %25 = call ptr (ptr, ptr, i32, i32, i32, ptr, ptr, ...) @proto_tree_add_subtree_format(ptr noundef %14, ptr noundef %15, i32 noundef 0, i32 noundef 4, i32 noundef %16, ptr noundef null, ptr noundef @.str.331, ptr noundef %20, i32 noundef %21, ptr noundef %24)
  store ptr %25, ptr %7, align 8
  %26 = load ptr, ptr %7, align 8
  %27 = load i32, ptr @hf_rpc_lastfrag, align 4
  %28 = load ptr, ptr %4, align 8
  %29 = load i32, ptr %6, align 4
  %30 = zext i32 %29 to i64
  %31 = call ptr @proto_tree_add_boolean(ptr noundef %26, i32 noundef %27, ptr noundef %28, i32 noundef 0, i32 noundef 4, i64 noundef %30)
  %32 = load ptr, ptr %7, align 8
  %33 = load i32, ptr @hf_rpc_fraglen, align 4
  %34 = load ptr, ptr %4, align 8
  %35 = load i32, ptr %6, align 4
  %36 = call ptr @proto_tree_add_uint(ptr noundef %32, i32 noundef %33, ptr noundef %34, i32 noundef 0, i32 noundef 4, i32 noundef %35)
  br label %37

37:                                               ; preds = %11, %3
  call void @llvm.lifetime.end.p0(i64 4, ptr %8) #18
  call void @llvm.lifetime.end.p0(i64 8, ptr %7) #18
  ret void
}

; Function Attrs: null_pointer_is_valid sspstrong uwtable
define internal void @show_rpc_fragment(ptr noundef %0, ptr noundef %1, i32 noundef %2) #0 {
  %4 = alloca ptr, align 8
  %5 = alloca ptr, align 8
  %6 = alloca i32, align 4
  store ptr %0, ptr %4, align 8
  store ptr %1, ptr %5, align 8
  store i32 %2, ptr %6, align 4
  %7 = load ptr, ptr %5, align 8
  %8 = icmp ne ptr %7, null
  br i1 %8, label %9, label %17

9:                                                ; preds = %3
  %10 = load ptr, ptr %4, align 8
  %11 = load ptr, ptr %5, align 8
  %12 = load i32, ptr %6, align 4
  call void @show_rpc_fragheader(ptr noundef %10, ptr noundef %11, i32 noundef %12)
  %13 = load ptr, ptr %5, align 8
  %14 = load i32, ptr @hf_rpc_fragment_data, align 4
  %15 = load ptr, ptr %4, align 8
  %16 = call ptr @proto_tree_add_item(ptr noundef %13, i32 noundef %14, ptr noundef %15, i32 noundef 4, i32 noundef -1, i32 noundef 0)
  br label %17

17:                                               ; preds = %9, %3
  ret void
}

; Function Attrs: null_pointer_is_valid sspstrong uwtable
define internal void @make_frag_tree(ptr noundef %0, ptr noundef %1, i32 noundef %2, i32 noundef %3, i32 noundef %4) #0 {
  %6 = alloca ptr, align 8
  %7 = alloca ptr, align 8
  %8 = alloca i32, align 4
  %9 = alloca i32, align 4
  %10 = alloca i32, align 4
  %11 = alloca ptr, align 8
  %12 = alloca ptr, align 8
  %13 = alloca i32, align 4
  store ptr %0, ptr %6, align 8
  store ptr %1, ptr %7, align 8
  store i32 %2, ptr %8, align 4
  store i32 %3, ptr %9, align 4
  store i32 %4, ptr %10, align 4
  call void @llvm.lifetime.start.p0(i64 8, ptr %11) #18
  call void @llvm.lifetime.start.p0(i64 8, ptr %12) #18
  %14 = load ptr, ptr %7, align 8
  %15 = icmp eq ptr %14, null
  br i1 %15, label %16, label %17

16:                                               ; preds = %5
  store i32 1, ptr %13, align 4
  br label %30

17:                                               ; preds = %5
  %18 = load ptr, ptr %7, align 8
  %19 = load i32, ptr %8, align 4
  %20 = load ptr, ptr %6, align 8
  %21 = load i32, ptr %8, align 4
  %22 = call ptr @proto_get_protocol_name(i32 noundef %21)
  %23 = call ptr (ptr, i32, ptr, i32, i32, ptr, ...) @proto_tree_add_protocol_format(ptr noundef %18, i32 noundef %19, ptr noundef %20, i32 noundef 0, i32 noundef -1, ptr noundef @.str.347, ptr noundef %22)
  store ptr %23, ptr %11, align 8
  %24 = load ptr, ptr %11, align 8
  %25 = load i32, ptr %9, align 4
  %26 = call ptr @proto_item_add_subtree(ptr noundef %24, i32 noundef %25)
  store ptr %26, ptr %12, align 8
  %27 = load ptr, ptr %6, align 8
  %28 = load ptr, ptr %12, align 8
  %29 = load i32, ptr %10, align 4
  call void @show_rpc_fragment(ptr noundef %27, ptr noundef %28, i32 noundef %29)
  store i32 0, ptr %13, align 4
  br label %30

30:                                               ; preds = %17, %16
  call void @llvm.lifetime.end.p0(i64 8, ptr %12) #18
  call void @llvm.lifetime.end.p0(i64 8, ptr %11) #18
  %31 = load i32, ptr %13, align 4
  switch i32 %31, label %33 [
    i32 0, label %32
    i32 1, label %32
  ]

32:                                               ; preds = %30, %30
  ret void

33:                                               ; preds = %30
  unreachable
}