; Function Attrs: null_pointer_is_valid sspstrong uwtable
define internal fastcc void @make_frag_tree(ptr noundef %0, ptr noundef %1, i32 noundef %2, i32 noundef %3, i32 noundef %4) unnamed_addr #0 {
  %6 = icmp eq ptr %1, null
  br i1 %6, label %show_rpc_fragment.exit, label %7

7:                                                ; preds = %5
  %8 = tail call ptr @proto_get_protocol_name(i32 noundef %2)
  %9 = tail call ptr (ptr, i32, ptr, i32, i32, ptr, ...) @proto_tree_add_protocol_format(ptr noundef nonnull %1, i32 noundef %2, ptr noundef %0, i32 noundef 0, i32 noundef -1, ptr noundef nonnull @.str.347, ptr noundef %8)
  %10 = tail call ptr @proto_item_add_subtree(ptr noundef %9, i32 noundef %3)
  %.not.i = icmp eq ptr %10, null
  br i1 %.not.i, label %show_rpc_fragment.exit, label %11

11:                                               ; preds = %7
  %12 = and i32 %4, 2147483647
  %13 = load i32, ptr @ett_rpc_fraghdr, align 4
  %.not.i.i = icmp sgt i32 %4, -1
  %14 = select i1 %.not.i.i, ptr @.str.333, ptr @.str.332
  %15 = icmp eq i32 %12, 1
  %16 = select i1 %15, ptr @.str.334, ptr @.str.335
  %17 = tail call ptr (ptr, ptr, i32, i32, i32, ptr, ptr, ...) @proto_tree_add_subtree_format(ptr noundef nonnull %10, ptr noundef %0, i32 noundef 0, i32 noundef 4, i32 noundef %13, ptr noundef null, ptr noundef nonnull @.str.331, ptr noundef nonnull %14, i32 noundef %12, ptr noundef nonnull %16)
  %18 = load i32, ptr @hf_rpc_lastfrag, align 4
  %19 = zext i32 %4 to i64
  %20 = tail call ptr @proto_tree_add_boolean(ptr noundef %17, i32 noundef %18, ptr noundef %0, i32 noundef 0, i32 noundef 4, i64 noundef %19)
  %21 = load i32, ptr @hf_rpc_fraglen, align 4
  %22 = tail call ptr @proto_tree_add_uint(ptr noundef %17, i32 noundef %21, ptr noundef %0, i32 noundef 0, i32 noundef 4, i32 noundef %4)
  %23 = load i32, ptr @hf_rpc_fragment_data, align 4
  %24 = tail call ptr @proto_tree_add_item(ptr noundef nonnull %10, i32 noundef %23, ptr noundef %0, i32 noundef 4, i32 noundef -1, i32 noundef 0)
  br label %show_rpc_fragment.exit

show_rpc_fragment.exit:                           ; preds = %11, %7, %5
  ret void
}